target datalayout = "e-m:e-p270:32:32-p271:32:32-p272:64:64-i64:64-i128:128-f80:128-n8:16:32:64-S128"
target triple = "x86_64-pc-linux-gnu"

%struct.hwloc_infos_s = type { ptr, i32, i32 }
%struct.hwloc_obj = type { i32, ptr, i32, ptr, i64, ptr, i32, i32, ptr, ptr, ptr, i32, ptr, ptr, i32, ptr, ptr, ptr, i32, i32, ptr, i32, ptr, i32, ptr, ptr, ptr, ptr, ptr, %struct.hwloc_infos_s, ptr, i64 }
%struct.procinfo = type { i32, i32, [8 x i32], ptr, i32, i32, ptr, [13 x i8], [49 x i8], i32, i32, i32, i32, i32 }

@.str.58 = private unnamed_addr constant [10 x i8] c"CPUVendor\00", align 1
@.str.59 = private unnamed_addr constant [3 x i8] c"%u\00", align 1
@.str.60 = private unnamed_addr constant [16 x i8] c"CPUFamilyNumber\00", align 1
@.str.61 = private unnamed_addr constant [15 x i8] c"CPUModelNumber\00", align 1
@.str.62 = private unnamed_addr constant [9 x i8] c"CPUModel\00", align 1
@.str.63 = private unnamed_addr constant [12 x i8] c"CPUStepping\00", align 1

; Function Attrs: nounwind uwtable
define internal void @hwloc_x86_add_cpuinfos(ptr noundef %0, ptr noundef %1) #0 {
  %3 = alloca ptr, align 8
  %4 = alloca ptr, align 8
  %5 = alloca [12 x i8], align 1
  %6 = alloca ptr, align 8
  store ptr %0, ptr %3, align 8, !tbaa !72
  store ptr %1, ptr %4, align 8, !tbaa !86
  call void @llvm.lifetime.start.p0(i64 12, ptr %5) #15
  %7 = load ptr, ptr %4, align 8, !tbaa !86
  %8 = getelementptr inbounds nuw %struct.procinfo, ptr %7, i32 0, i32 7
  %9 = getelementptr inbounds [13 x i8], ptr %8, i64 0, i64 0
  %10 = load i8, ptr %9, align 8, !tbaa !83
  %11 = icmp ne i8 %10, 0
  br i1 %11, label %12, label %19

12:                                               ; preds = %2
  %13 = load ptr, ptr %3, align 8, !tbaa !72
  %14 = getelementptr inbounds nuw %struct.hwloc_obj, ptr %13, i32 0, i32 29
  %15 = load ptr, ptr %4, align 8, !tbaa !86
  %16 = getelementptr inbounds nuw %struct.procinfo, ptr %15, i32 0, i32 7
  %17 = getelementptr inbounds [13 x i8], ptr %16, i64 0, i64 0
  %18 = call i32 @hwloc__replace_infos(ptr noundef %14, ptr noundef @.str.58, ptr noundef %17)
  br label %19

19:                                               ; preds = %12, %2
  %20 = getelementptr inbounds [12 x i8], ptr %5, i64 0, i64 0
  %21 = load ptr, ptr %4, align 8, !tbaa !86
  %22 = getelementptr inbounds nuw %struct.procinfo, ptr %21, i32 0, i32 11
  %23 = load i32, ptr %22, align 8, !tbaa !120
  %24 = call i32 (ptr, i64, ptr, ...) @snprintf(ptr noundef %20, i64 noundef 12, ptr noundef @.str.59, i32 noundef %23) #15
  %25 = load ptr, ptr %3, align 8, !tbaa !72
  %26 = getelementptr inbounds nuw %struct.hwloc_obj, ptr %25, i32 0, i32 29
  %27 = getelementptr inbounds [12 x i8], ptr %5, i64 0, i64 0
  %28 = call i32 @hwloc__replace_infos(ptr noundef %26, ptr noundef @.str.60, ptr noundef %27)
  %29 = getelementptr inbounds [12 x i8], ptr %5, i64 0, i64 0
  %30 = load ptr, ptr %4, align 8, !tbaa !86
  %31 = getelementptr inbounds nuw %struct.procinfo, ptr %30, i32 0, i32 10
  %32 = load i32, ptr %31, align 4, !tbaa !121
  %33 = call i32 (ptr, i64, ptr, ...) @snprintf(ptr noundef %29, i64 noundef 12, ptr noundef @.str.59, i32 noundef %32) #15
  %34 = load ptr, ptr %3, align 8, !tbaa !72
  %35 = getelementptr inbounds nuw %struct.hwloc_obj, ptr %34, i32 0, i32 29
  %36 = getelementptr inbounds [12 x i8], ptr %5, i64 0, i64 0
  %37 = call i32 @hwloc__replace_infos(ptr noundef %35, ptr noundef @.str.61, ptr noundef %36)
  %38 = load ptr, ptr %4, align 8, !tbaa !86
  %39 = getelementptr inbounds nuw %struct.procinfo, ptr %38, i32 0, i32 8
  %40 = getelementptr inbounds [49 x i8], ptr %39, i64 0, i64 0
  %41 = load i8, ptr %40, align 1, !tbaa !83
  %42 = icmp ne i8 %41, 0
  br i1 %42, label %43, label %60

43:                                               ; preds = %19
  call void @llvm.lifetime.start.p0(i64 8, ptr %6) #15
  %44 = load ptr, ptr %4, align 8, !tbaa !86
  %45 = getelementptr inbounds nuw %struct.procinfo, ptr %44, i32 0, i32 8
  %46 = getelementptr inbounds [49 x i8], ptr %45, i64 0, i64 0
  store ptr %46, ptr %6, align 8, !tbaa !34
  br label %47

47:                                               ; preds = %52, %43
  %48 = load ptr, ptr %6, align 8, !tbaa !34
  %49 = load i8, ptr %48, align 1, !tbaa !83
  %50 = sext i8 %49 to i32
  %51 = icmp eq i32 %50, 32
  br i1 %51, label %52, label %55

52:                                               ; preds = %47
  %53 = load ptr, ptr %6, align 8, !tbaa !34
  %54 = getelementptr inbounds nuw i8, ptr %53, i32 1
  store ptr %54, ptr %6, align 8, !tbaa !34
  br label %47, !llvm.loop !182

55:                                               ; preds = %47
  %56 = load ptr, ptr %3, align 8, !tbaa !72
  %57 = getelementptr inbounds nuw %struct.hwloc_obj, ptr %56, i32 0, i32 29
  %58 = load ptr, ptr %6, align 8, !tbaa !34
  %59 = call i32 @hwloc__replace_infos(ptr noundef %57, ptr noundef @.str.62, ptr noundef %58)
  call void @llvm.lifetime.end.p0(i64 8, ptr %6) #15
  br label %60

60:                                               ; preds = %55, %19
  %61 = getelementptr inbounds [12 x i8], ptr %5, i64 0, i64 0
  %62 = load ptr, ptr %4, align 8, !tbaa !86
  %63 = getelementptr inbounds nuw %struct.procinfo, ptr %62, i32 0, i32 9
  %64 = load i32, ptr %63, align 8, !tbaa !122
  %65 = call i32 (ptr, i64, ptr, ...) @snprintf(ptr noundef %61, i64 noundef 12, ptr noundef @.str.59, i32 noundef %64) #15
  %66 = load ptr, ptr %3, align 8, !tbaa !72
  %67 = getelementptr inbounds nuw %struct.hwloc_obj, ptr %66, i32 0, i32 29
  %68 = getelementptr inbounds [12 x i8], ptr %5, i64 0, i64 0
  %69 = call i32 @hwloc__replace_infos(ptr noundef %67, ptr noundef @.str.63, ptr noundef %68)
  call void @llvm.lifetime.end.p0(i64 12, ptr %5) #15
  ret void
}