; Function Attrs: nounwind uwtable
define internal fastcc void @hwloc_x86_add_cpuinfos(ptr noundef %0, ptr noundef nonnull %1) unnamed_addr #0 {
  %3 = alloca [12 x i8], align 1
  call void @llvm.lifetime.start.p0(i64 12, ptr nonnull %3) #22
  %4 = getelementptr inbounds nuw i8, ptr %1, i64 64
  %5 = load i8, ptr %4, align 8, !tbaa !25
  %.not = icmp eq i8 %5, 0
  br i1 %.not, label %9, label %6

6:                                                ; preds = %2
  %7 = getelementptr inbounds nuw i8, ptr %0, i64 216
  %8 = tail call i32 @hwloc__replace_infos(ptr noundef nonnull %7, ptr noundef nonnull @.str.58, ptr noundef nonnull %4) #22
  br label %9

9:                                                ; preds = %6, %2
  %10 = getelementptr inbounds nuw i8, ptr %1, i64 136
  %11 = load i32, ptr %10, align 8, !tbaa !106
  %12 = call i32 (ptr, i64, ptr, ...) @snprintf(ptr noundef nonnull dereferenceable(1) %3, i64 noundef 12, ptr noundef nonnull @.str.59, i32 noundef %11) #22
  %13 = getelementptr inbounds nuw i8, ptr %0, i64 216
  %14 = call i32 @hwloc__replace_infos(ptr noundef nonnull %13, ptr noundef nonnull @.str.60, ptr noundef nonnull %3) #22
  %15 = getelementptr inbounds nuw i8, ptr %1, i64 132
  %16 = load i32, ptr %15, align 4, !tbaa !107
  %17 = call i32 (ptr, i64, ptr, ...) @snprintf(ptr noundef nonnull dereferenceable(1) %3, i64 noundef 12, ptr noundef nonnull @.str.59, i32 noundef %16) #22
  %18 = call i32 @hwloc__replace_infos(ptr noundef nonnull %13, ptr noundef nonnull @.str.61, ptr noundef nonnull %3) #22
  %19 = getelementptr inbounds nuw i8, ptr %1, i64 77
  %20 = load i8, ptr %19, align 1, !tbaa !25
  switch i8 %20, label %._crit_edge [
    i8 0, label %24
    i8 32, label %.lr.ph
  ]

.lr.ph:                                           ; preds = %9, %.lr.ph
  %.016 = phi ptr [ %21, %.lr.ph ], [ %19, %9 ]
  %21 = getelementptr inbounds nuw i8, ptr %.016, i64 1
  %.pr = load i8, ptr %21, align 1, !tbaa !25
  %22 = icmp eq i8 %.pr, 32
  br i1 %22, label %.lr.ph, label %._crit_edge, !llvm.loop !163

._crit_edge:                                      ; preds = %.lr.ph, %9
  %.0.lcssa = phi ptr [ %19, %9 ], [ %21, %.lr.ph ]
  %23 = call i32 @hwloc__replace_infos(ptr noundef nonnull %13, ptr noundef nonnull @.str.62, ptr noundef nonnull %.0.lcssa) #22
  br label %24

24:                                               ; preds = %9, %._crit_edge
  %25 = getelementptr inbounds nuw i8, ptr %1, i64 128
  %26 = load i32, ptr %25, align 8, !tbaa !108
  %27 = call i32 (ptr, i64, ptr, ...) @snprintf(ptr noundef nonnull dereferenceable(1) %3, i64 noundef 12, ptr noundef nonnull @.str.59, i32 noundef %26) #22
  %28 = call i32 @hwloc__replace_infos(ptr noundef nonnull %13, ptr noundef nonnull @.str.63, ptr noundef nonnull %3) #22
  call void @llvm.lifetime.end.p0(i64 12, ptr nonnull %3) #22
  ret void
}